target datalayout = "e-m:e-p270:32:32-p271:32:32-p272:64:64-i64:64-i128:128-f80:128-n8:16:32:64-S128"
target triple = "x86_64-pc-linux-gnu"

%"class.cv::UMat" = type { i32, i32, i32, i32, ptr, i32, ptr, i64, %"struct.cv::MatSize", %"struct.cv::MatStep" }
%"struct.cv::MatSize" = type { ptr }
%"struct.cv::MatStep" = type { ptr, [2 x i64] }

; Function Attrs: inlinehint mustprogress nounwind uwtable
define linkonce_odr hidden void @_ZN2cv7MatStepC2Ev(ptr noundef nonnull align 8 dereferenceable(24) %0) unnamed_addr #5 comdat align 2 {
  %2 = alloca ptr, align 8
  store ptr %0, ptr %2, align 8, !tbaa !86
  %3 = load ptr, ptr %2, align 8
  %4 = getelementptr inbounds nuw %"struct.cv::MatStep", ptr %3, i32 0, i32 1
  %5 = getelementptr inbounds [2 x i64], ptr %4, i64 0, i64 0
  %6 = getelementptr inbounds nuw %"struct.cv::MatStep", ptr %3, i32 0, i32 0
  store ptr %5, ptr %6, align 8, !tbaa !88
  %7 = getelementptr inbounds nuw %"struct.cv::MatStep", ptr %3, i32 0, i32 0
  %8 = load ptr, ptr %7, align 8, !tbaa !88
  %9 = getelementptr inbounds i64, ptr %8, i64 1
  store i64 0, ptr %9, align 8, !tbaa !50
  %10 = getelementptr inbounds nuw %"struct.cv::MatStep", ptr %3, i32 0, i32 0
  %11 = load ptr, ptr %10, align 8, !tbaa !88
  %12 = getelementptr inbounds i64, ptr %11, i64 0
  store i64 0, ptr %12, align 8, !tbaa !50
  ret void
}

; Function Attrs: inlinehint mustprogress nounwind uwtable
define linkonce_odr hidden void @_ZN2cv7MatSizeC2EPi(ptr noundef nonnull align 8 dereferenceable(8) %0, ptr noundef %1) unnamed_addr #5 comdat align 2 {
  %3 = alloca ptr, align 8
  %4 = alloca ptr, align 8
  store ptr %0, ptr %3, align 8, !tbaa !82
  store ptr %1, ptr %4, align 8, !tbaa !84
  %5 = load ptr, ptr %3, align 8
  %6 = getelementptr inbounds nuw %"struct.cv::MatSize", ptr %5, i32 0, i32 0
  %7 = load ptr, ptr %4, align 8, !tbaa !84
  store ptr %7, ptr %6, align 8, !tbaa !85
  ret void
}

; Function Attrs: mustprogress nounwind uwtable
define void @_ZN2cv4UMatC2ENS_14UMatUsageFlagsE(ptr noundef nonnull align 8 dereferenceable(80) %0, i32 noundef %1) unnamed_addr #0 align 2 {
  %3 = alloca ptr, align 8
  %4 = alloca i32, align 4
  store ptr %0, ptr %3, align 8, !tbaa !65
  store i32 %1, ptr %4, align 4, !tbaa !67
  %5 = load ptr, ptr %3, align 8
  %6 = getelementptr inbounds nuw %"class.cv::UMat", ptr %5, i32 0, i32 0
  store i32 1124007936, ptr %6, align 8, !tbaa !69
  %7 = getelementptr inbounds nuw %"class.cv::UMat", ptr %5, i32 0, i32 1
  store i32 0, ptr %7, align 4, !tbaa !75
  %8 = getelementptr inbounds nuw %"class.cv::UMat", ptr %5, i32 0, i32 2
  store i32 0, ptr %8, align 8, !tbaa !76
  %9 = getelementptr inbounds nuw %"class.cv::UMat", ptr %5, i32 0, i32 3
  store i32 0, ptr %9, align 4, !tbaa !77
  %10 = getelementptr inbounds nuw %"class.cv::UMat", ptr %5, i32 0, i32 4
  store ptr null, ptr %10, align 8, !tbaa !78
  %11 = getelementptr inbounds nuw %"class.cv::UMat", ptr %5, i32 0, i32 5
  %12 = load i32, ptr %4, align 4, !tbaa !67
  store i32 %12, ptr %11, align 8, !tbaa !79
  %13 = getelementptr inbounds nuw %"class.cv::UMat", ptr %5, i32 0, i32 6
  store ptr null, ptr %13, align 8, !tbaa !80
  %14 = getelementptr inbounds nuw %"class.cv::UMat", ptr %5, i32 0, i32 7
  store i64 0, ptr %14, align 8, !tbaa !81
  %15 = getelementptr inbounds nuw %"class.cv::UMat", ptr %5, i32 0, i32 8
  %16 = getelementptr inbounds nuw %"class.cv::UMat", ptr %5, i32 0, i32 2
  call void @_ZN2cv7MatSizeC2EPi(ptr noundef nonnull align 8 dereferenceable(8) %15, ptr noundef %16) #16
  %17 = getelementptr inbounds nuw %"class.cv::UMat", ptr %5, i32 0, i32 9
  call void @_ZN2cv7MatStepC2Ev(ptr noundef nonnull align 8 dereferenceable(24) %17) #16
  ret void
}